; Function Attrs: mustprogress nounwind uwtable
define hidden void @_ZN12G1HeapRegion8set_edenEv(ptr noundef nonnull align 8 dereferenceable(136) %0) local_unnamed_addr #1 align 2 {
  %2 = getelementptr inbounds i8, ptr %0, i64 48
  %3 = load i32, ptr %2, align 8
  %4 = getelementptr inbounds i8, ptr %0, i64 52
  %5 = tail call noundef i32 @_ZN16G1HeapRegionType14get_trace_typeEv(ptr noundef nonnull align 4 dereferenceable(4) %4) #16
  %6 = load ptr, ptr %0, align 8
  %7 = ptrtoint ptr %6 to i64
  %8 = getelementptr inbounds i8, ptr %0, i64 16
  %9 = load volatile ptr, ptr %8, align 8
  %10 = ptrtoint ptr %9 to i64
  %11 = sub i64 %10, %7
  tail call void @_ZN18G1HeapRegionTracer23send_region_type_changeEjN21G1HeapRegionTraceType4TypeES1_mm(i32 noundef %3, i32 noundef %5, i32 noundef 1, i64 noundef %7, i64 noundef %11) #16
  store volatile i32 2, ptr %4, align 4
  ret void
}